target datalayout = "e-m:e-p270:32:32-p271:32:32-p272:64:64-i64:64-i128:128-f80:128-n8:16:32:64-S128"
target triple = "x86_64-pc-linux-gnu"

%"class.std::__cxx11::basic_string" = type { %"struct.std::__cxx11::basic_string<char>::_Alloc_hider", i64, %union.anon }
%"struct.std::__cxx11::basic_string<char>::_Alloc_hider" = type { ptr }
%union.anon = type { i64, [8 x i8] }
%"class.rocksdb::Slice" = type { ptr, i64 }
%"class.__gnu_cxx::__normal_iterator" = type { ptr }
%"struct.std::_Deque_iterator.66" = type { ptr, ptr, ptr, ptr }
%"class.std::reverse_iterator" = type { %"struct.std::_Deque_iterator.66" }
%"class.std::reverse_iterator.67" = type { %"class.__gnu_cxx::__normal_iterator" }
%"class.rocksdb::MergeOutputIterator" = type { ptr, %"class.std::reverse_iterator", %"class.std::reverse_iterator.67" }

; Function Attrs: inlinehint mustprogress nounwind uwtable
define linkonce_odr noundef i64 @_ZSt16__deque_buf_sizem(i64 noundef %0) #3 comdat {
  %2 = alloca i64, align 8
  store i64 %0, ptr %2, align 8, !tbaa !13
  %3 = load i64, ptr %2, align 8, !tbaa !13
  %4 = icmp ult i64 %3, 512
  br i1 %4, label %5, label %8

5:                                                ; preds = %1
  %6 = load i64, ptr %2, align 8, !tbaa !13
  %7 = udiv i64 512, %6
  br label %9

8:                                                ; preds = %1
  br label %9

9:                                                ; preds = %8, %5
  %10 = phi i64 [ %7, %5 ], [ 1, %8 ]
  ret i64 %10
}

; Function Attrs: mustprogress nounwind uwtable
define linkonce_odr noundef i64 @_ZNSt15_Deque_iteratorINSt7__cxx1112basic_stringIcSt11char_traitsIcESaIcEEERKS5_PS6_E14_S_buffer_sizeEv() #1 comdat align 2 {
  %1 = call noundef i64 @_ZSt16__deque_buf_sizem(i64 noundef 32)
  ret i64 %1
}

; Function Attrs: mustprogress nounwind uwtable
define linkonce_odr void @_ZNSt15_Deque_iteratorINSt7__cxx1112basic_stringIcSt11char_traitsIcESaIcEEERKS5_PS6_E11_M_set_nodeEPPS5_(ptr noundef nonnull align 8 dereferenceable(32) %0, ptr noundef %1) #1 comdat align 2 {
  %3 = alloca ptr, align 8
  %4 = alloca ptr, align 8
  store ptr %0, ptr %3, align 8, !tbaa !267
  store ptr %1, ptr %4, align 8, !tbaa !142
  %5 = load ptr, ptr %3, align 8
  %6 = load ptr, ptr %4, align 8, !tbaa !142
  %7 = getelementptr inbounds nuw %"struct.std::_Deque_iterator.66", ptr %5, i32 0, i32 3
  store ptr %6, ptr %7, align 8, !tbaa !279
  %8 = load ptr, ptr %4, align 8, !tbaa !142
  %9 = load ptr, ptr %8, align 8, !tbaa !30
  %10 = getelementptr inbounds nuw %"struct.std::_Deque_iterator.66", ptr %5, i32 0, i32 1
  store ptr %9, ptr %10, align 8, !tbaa !275
  %11 = getelementptr inbounds nuw %"struct.std::_Deque_iterator.66", ptr %5, i32 0, i32 1
  %12 = load ptr, ptr %11, align 8, !tbaa !275
  %13 = call noundef i64 @_ZNSt15_Deque_iteratorINSt7__cxx1112basic_stringIcSt11char_traitsIcESaIcEEERKS5_PS6_E14_S_buffer_sizeEv() #2
  %14 = getelementptr inbounds %"class.std::__cxx11::basic_string", ptr %12, i64 %13
  %15 = getelementptr inbounds nuw %"struct.std::_Deque_iterator.66", ptr %5, i32 0, i32 2
  store ptr %14, ptr %15, align 8, !tbaa !277
  ret void
}

; Function Attrs: mustprogress nounwind uwtable
define linkonce_odr noundef nonnull align 8 dereferenceable(8) ptr @_ZN9__gnu_cxx17__normal_iteratorIPKN7rocksdb5SliceESt6vectorIS2_SaIS2_EEEmmEv(ptr noundef nonnull align 8 dereferenceable(8) %0) #1 comdat align 2 {
  %2 = alloca ptr, align 8
  store ptr %0, ptr %2, align 8, !tbaa !452
  %3 = load ptr, ptr %2, align 8
  %4 = getelementptr inbounds nuw %"class.__gnu_cxx::__normal_iterator", ptr %3, i32 0, i32 0
  %5 = load ptr, ptr %4, align 8, !tbaa !454
  %6 = getelementptr inbounds %"class.rocksdb::Slice", ptr %5, i32 -1
  store ptr %6, ptr %4, align 8, !tbaa !454
  ret ptr %3
}

; Function Attrs: mustprogress nounwind uwtable
define linkonce_odr noundef nonnull align 8 dereferenceable(32) ptr @_ZNSt15_Deque_iteratorINSt7__cxx1112basic_stringIcSt11char_traitsIcESaIcEEERKS5_PS6_EmmEv(ptr noundef nonnull align 8 dereferenceable(32) %0) #1 comdat align 2 {
  %2 = alloca ptr, align 8
  store ptr %0, ptr %2, align 8, !tbaa !267
  %3 = load ptr, ptr %2, align 8
  %4 = getelementptr inbounds nuw %"struct.std::_Deque_iterator.66", ptr %3, i32 0, i32 0
  %5 = load ptr, ptr %4, align 8, !tbaa !272
  %6 = getelementptr inbounds nuw %"struct.std::_Deque_iterator.66", ptr %3, i32 0, i32 1
  %7 = load ptr, ptr %6, align 8, !tbaa !275
  %8 = icmp eq ptr %5, %7
  br i1 %8, label %9, label %16

9:                                                ; preds = %1
  %10 = getelementptr inbounds nuw %"struct.std::_Deque_iterator.66", ptr %3, i32 0, i32 3
  %11 = load ptr, ptr %10, align 8, !tbaa !279
  %12 = getelementptr inbounds ptr, ptr %11, i64 -1
  call void @_ZNSt15_Deque_iteratorINSt7__cxx1112basic_stringIcSt11char_traitsIcESaIcEEERKS5_PS6_E11_M_set_nodeEPPS5_(ptr noundef nonnull align 8 dereferenceable(32) %3, ptr noundef %12) #2
  %13 = getelementptr inbounds nuw %"struct.std::_Deque_iterator.66", ptr %3, i32 0, i32 2
  %14 = load ptr, ptr %13, align 8, !tbaa !277
  %15 = getelementptr inbounds nuw %"struct.std::_Deque_iterator.66", ptr %3, i32 0, i32 0
  store ptr %14, ptr %15, align 8, !tbaa !272
  br label %16

16:                                               ; preds = %9, %1
  %17 = getelementptr inbounds nuw %"struct.std::_Deque_iterator.66", ptr %3, i32 0, i32 0
  %18 = load ptr, ptr %17, align 8, !tbaa !272
  %19 = getelementptr inbounds %"class.std::__cxx11::basic_string", ptr %18, i32 -1
  store ptr %19, ptr %17, align 8, !tbaa !272
  ret ptr %3
}

; Function Attrs: mustprogress nounwind uwtable
define linkonce_odr noundef nonnull align 8 dereferenceable(8) ptr @_ZNSt16reverse_iteratorIN9__gnu_cxx17__normal_iteratorIPKN7rocksdb5SliceESt6vectorIS3_SaIS3_EEEEEppEv(ptr noundef nonnull align 8 dereferenceable(8) %0) #1 comdat align 2 {
  %2 = alloca ptr, align 8
  store ptr %0, ptr %2, align 8, !tbaa !289
  %3 = load ptr, ptr %2, align 8
  %4 = getelementptr inbounds nuw %"class.std::reverse_iterator.67", ptr %3, i32 0, i32 0
  %5 = call noundef nonnull align 8 dereferenceable(8) ptr @_ZN9__gnu_cxx17__normal_iteratorIPKN7rocksdb5SliceESt6vectorIS2_SaIS2_EEEmmEv(ptr noundef nonnull align 8 dereferenceable(8) %4) #2
  ret ptr %3
}

; Function Attrs: mustprogress nounwind uwtable
define linkonce_odr noundef nonnull align 8 dereferenceable(32) ptr @_ZNSt16reverse_iteratorISt15_Deque_iteratorINSt7__cxx1112basic_stringIcSt11char_traitsIcESaIcEEERKS6_PS7_EEppEv(ptr noundef nonnull align 8 dereferenceable(32) %0) #1 comdat align 2 {
  %2 = alloca ptr, align 8
  store ptr %0, ptr %2, align 8, !tbaa !287
  %3 = load ptr, ptr %2, align 8
  %4 = getelementptr inbounds nuw %"class.std::reverse_iterator", ptr %3, i32 0, i32 0
  %5 = call noundef nonnull align 8 dereferenceable(32) ptr @_ZNSt15_Deque_iteratorINSt7__cxx1112basic_stringIcSt11char_traitsIcESaIcEEERKS5_PS6_EmmEv(ptr noundef nonnull align 8 dereferenceable(32) %4) #2
  ret ptr %3
}

; Function Attrs: mustprogress uwtable
define void @_ZN7rocksdb19MergeOutputIterator4NextEv(ptr noundef nonnull align 8 dereferenceable(48) %0) #5 align 2 {
  %2 = alloca ptr, align 8
  store ptr %0, ptr %2, align 8, !tbaa !280
  %3 = load ptr, ptr %2, align 8
  %4 = getelementptr inbounds nuw %"class.rocksdb::MergeOutputIterator", ptr %3, i32 0, i32 1
  %5 = call noundef nonnull align 8 dereferenceable(32) ptr @_ZNSt16reverse_iteratorISt15_Deque_iteratorINSt7__cxx1112basic_stringIcSt11char_traitsIcESaIcEEERKS6_PS7_EEppEv(ptr noundef nonnull align 8 dereferenceable(32) %4)
  %6 = getelementptr inbounds nuw %"class.rocksdb::MergeOutputIterator", ptr %3, i32 0, i32 2
  %7 = call noundef nonnull align 8 dereferenceable(8) ptr @_ZNSt16reverse_iteratorIN9__gnu_cxx17__normal_iteratorIPKN7rocksdb5SliceESt6vectorIS3_SaIS3_EEEEEppEv(ptr noundef nonnull align 8 dereferenceable(8) %6)
  ret void
}