; Function Attrs: mustprogress nofree norecurse nosync nounwind willreturn memory(read, argmem: readwrite, inaccessiblemem: none) uwtable
define void @_ZN7rocksdb19MergeOutputIterator4NextEv(ptr noundef nonnull align 8 captures(none) dereferenceable(48) %0) local_unnamed_addr #12 align 2 {
  %2 = getelementptr inbounds nuw i8, ptr %0, i64 8
  %3 = load ptr, ptr %2, align 8, !tbaa !490
  %4 = getelementptr inbounds nuw i8, ptr %0, i64 16
  %5 = load ptr, ptr %4, align 8, !tbaa !491
  %6 = icmp eq ptr %3, %5
  br i1 %6, label %7, label %_ZNSt16reverse_iteratorISt15_Deque_iteratorINSt7__cxx1112basic_stringIcSt11char_traitsIcESaIcEEERKS6_PS7_EEppEv.exit

7:                                                ; preds = %1
  %8 = getelementptr inbounds nuw i8, ptr %0, i64 32
  %9 = load ptr, ptr %8, align 8, !tbaa !492
  %10 = getelementptr inbounds i8, ptr %9, i64 -8
  store ptr %10, ptr %8, align 8, !tbaa !492
  %11 = load ptr, ptr %10, align 8, !tbaa !84
  store ptr %11, ptr %4, align 8, !tbaa !491
  %12 = getelementptr inbounds nuw i8, ptr %11, i64 512
  %13 = getelementptr inbounds nuw i8, ptr %0, i64 24
  store ptr %12, ptr %13, align 8, !tbaa !493
  br label %_ZNSt16reverse_iteratorISt15_Deque_iteratorINSt7__cxx1112basic_stringIcSt11char_traitsIcESaIcEEERKS6_PS7_EEppEv.exit

_ZNSt16reverse_iteratorISt15_Deque_iteratorINSt7__cxx1112basic_stringIcSt11char_traitsIcESaIcEEERKS6_PS7_EEppEv.exit: ; preds = %1, %7
  %14 = phi ptr [ %12, %7 ], [ %3, %1 ]
  %15 = getelementptr inbounds i8, ptr %14, i64 -32
  store ptr %15, ptr %2, align 8, !tbaa !490
  %16 = getelementptr inbounds nuw i8, ptr %0, i64 40
  %17 = load ptr, ptr %16, align 8, !tbaa !494
  %18 = getelementptr inbounds i8, ptr %17, i64 -16
  store ptr %18, ptr %16, align 8, !tbaa !494
  ret void
}